; Function Attrs: mustprogress optsize uwtable
define internal fastcc noalias noundef ptr @_ZNSt12_Vector_baseIZL28nanobind_init_test_issue_extRN8nanobind7module_EE7ExampleSaIS3_EE11_M_allocateEm(i64 noundef %0) unnamed_addr #0 align 2 {
  %.not = icmp eq i64 %0, 0
  br i1 %.not, label %10, label %2

2:                                                ; preds = %1
  %3 = icmp ugt i64 %0, 288230376151711743
  br i1 %3, label %4, label %_ZNSt16allocator_traitsISaIZL28nanobind_init_test_issue_extRN8nanobind7module_EE7ExampleEE8allocateERS4_m.exit, !prof !98

4:                                                ; preds = %2
  %5 = icmp ugt i64 %0, 576460752303423487
  br i1 %5, label %6, label %7

6:                                                ; preds = %4
  tail call void @_ZSt28__throw_bad_array_new_lengthv() #33
  unreachable

7:                                                ; preds = %4
  tail call void @_ZSt17__throw_bad_allocv() #33
  unreachable

_ZNSt16allocator_traitsISaIZL28nanobind_init_test_issue_extRN8nanobind7module_EE7ExampleEE8allocateERS4_m.exit: ; preds = %2
  %8 = shl nuw nsw i64 %0, 5
  %9 = tail call noalias noundef nonnull ptr @_Znwm(i64 noundef %8) #32
  br label %10

10:                                               ; preds = %1, %_ZNSt16allocator_traitsISaIZL28nanobind_init_test_issue_extRN8nanobind7module_EE7ExampleEE8allocateERS4_m.exit
  %11 = phi ptr [ %9, %_ZNSt16allocator_traitsISaIZL28nanobind_init_test_issue_extRN8nanobind7module_EE7ExampleEE8allocateERS4_m.exit ], [ null, %1 ]
  ret ptr %11
}